; ModuleID = 'source-C-CXX/37/266.c'
source_filename = "source-C-CXX/37/266.c"
target datalayout = "e-m:e-p270:32:32-p271:32:32-p272:64:64-i64:64-f80:128-n8:16:32:64-S128"
target triple = "x86_64-pc-linux-gnu"

@.str = private unnamed_addr constant [3 x i8] c"%d\00", align 1
@.str.1 = private unnamed_addr constant [4 x i8] c"%lf\00", align 1
@.str.2 = private unnamed_addr constant [7 x i8] c"%.5lf\0A\00", align 1

; Function Attrs: nofree nounwind sspstrong uwtable
define dso_local i32 @main(i32 %0, i8** nocapture readnone %1) local_unnamed_addr #0 {
  %3 = alloca i32, align 4
  %4 = alloca i32, align 4
  %5 = alloca [100 x double], align 16
  %6 = bitcast i32* %3 to i8*
  call void @llvm.lifetime.start.p0i8(i64 4, i8* nonnull %6) #4
  %7 = bitcast i32* %4 to i8*
  call void @llvm.lifetime.start.p0i8(i64 4, i8* nonnull %7) #4
  %8 = bitcast [100 x double]* %5 to i8*
  call void @llvm.lifetime.start.p0i8(i64 800, i8* nonnull %8) #4
  %9 = call i32 (i8*, ...) @__isoc99_scanf(i8* getelementptr inbounds ([3 x i8], [3 x i8]* @.str, i64 0, i64 0), i32* nonnull %3)
  %10 = load i32, i32* %3, align 4, !tbaa !5
  %11 = icmp sgt i32 %10, 0
  br i1 %11, label %12, label %55

12:                                               ; preds = %2, %49
  %13 = phi double [ %50, %49 ], [ undef, %2 ]
  %14 = phi i32 [ %52, %49 ], [ 0, %2 ]
  %15 = call i32 (i8*, ...) @__isoc99_scanf(i8* getelementptr inbounds ([3 x i8], [3 x i8]* @.str, i64 0, i64 0), i32* nonnull %4)
  %16 = load i32, i32* %4, align 4, !tbaa !5
  %17 = icmp sgt i32 %16, 0
  br i1 %17, label %20, label %49

18:                                               ; preds = %20
  %19 = icmp sgt i32 %26, 0
  br i1 %19, label %33, label %49

20:                                               ; preds = %12, %20
  %21 = phi i64 [ %30, %20 ], [ 0, %12 ]
  %22 = phi double [ %29, %20 ], [ 0.000000e+00, %12 ]
  %23 = getelementptr inbounds [100 x double], [100 x double]* %5, i64 0, i64 %21
  %24 = call i32 (i8*, ...) @__isoc99_scanf(i8* getelementptr inbounds ([4 x i8], [4 x i8]* @.str.1, i64 0, i64 0), double* nonnull %23)
  %25 = load double, double* %23, align 8, !tbaa !9
  %26 = load i32, i32* %4, align 4, !tbaa !5
  %27 = sitofp i32 %26 to double
  %28 = fdiv double %25, %27
  %29 = fadd double %22, %28
  %30 = add nuw nsw i64 %21, 1
  %31 = sext i32 %26 to i64
  %32 = icmp slt i64 %30, %31
  br i1 %32, label %20, label %18, !llvm.loop !11

33:                                               ; preds = %18, %33
  %34 = phi i64 [ %45, %33 ], [ 0, %18 ]
  %35 = phi i32 [ %46, %33 ], [ %26, %18 ]
  %36 = phi double [ %41, %33 ], [ 0.000000e+00, %18 ]
  %37 = getelementptr inbounds [100 x double], [100 x double]* %5, i64 0, i64 %34
  %38 = load double, double* %37, align 8, !tbaa !9
  %39 = fsub double %38, %29
  %40 = fmul double %39, %39
  %41 = fadd double %36, %40
  %42 = sitofp i32 %35 to double
  %43 = fdiv double %41, %42
  %44 = call double @sqrt(double %43) #4
  %45 = add nuw nsw i64 %34, 1
  %46 = load i32, i32* %4, align 4, !tbaa !5
  %47 = sext i32 %46 to i64
  %48 = icmp slt i64 %45, %47
  br i1 %48, label %33, label %49, !llvm.loop !13

49:                                               ; preds = %33, %12, %18
  %50 = phi double [ %13, %18 ], [ %13, %12 ], [ %44, %33 ]
  %51 = call i32 (i8*, ...) @printf(i8* nonnull dereferenceable(1) getelementptr inbounds ([7 x i8], [7 x i8]* @.str.2, i64 0, i64 0), double %50)
  %52 = add nuw nsw i32 %14, 1
  %53 = load i32, i32* %3, align 4, !tbaa !5
  %54 = icmp slt i32 %52, %53
  br i1 %54, label %12, label %55, !llvm.loop !14

55:                                               ; preds = %49, %2
  call void @llvm.lifetime.end.p0i8(i64 800, i8* nonnull %8) #4
  call void @llvm.lifetime.end.p0i8(i64 4, i8* nonnull %7) #4
  call void @llvm.lifetime.end.p0i8(i64 4, i8* nonnull %6) #4
  ret i32 0
}

; Function Attrs: argmemonly mustprogress nofree nosync nounwind willreturn
declare void @llvm.lifetime.start.p0i8(i64 immarg, i8* nocapture) #1

; Function Attrs: nofree nounwind
declare noundef i32 @__isoc99_scanf(i8* nocapture noundef readonly, ...) local_unnamed_addr #2

; Function Attrs: mustprogress nofree nounwind willreturn
declare double @sqrt(double) local_unnamed_addr #3

; Function Attrs: nofree nounwind
declare noundef i32 @printf(i8* nocapture noundef readonly, ...) local_unnamed_addr #2

; Function Attrs: argmemonly mustprogress nofree nosync nounwind willreturn
declare void @llvm.lifetime.end.p0i8(i64 immarg, i8* nocapture) #1


!llvm.module.flags = !{!0, !1, !2, !3}
!llvm.ident = !{!4}

!0 = !{i32 1, !"wchar_size", i32 4}
!1 = !{i32 7, !"PIC Level", i32 2}
!2 = !{i32 7, !"PIE Level", i32 2}
!3 = !{i32 7, !"uwtable", i32 1}
!4 = !{!"clang version 13.0.0"}
!5 = !{!6, !6, i64 0}
!6 = !{!"int", !7, i64 0}
!7 = !{!"omnipotent char", !8, i64 0}
!8 = !{!"Simple C/C++ TBAA"}
!9 = !{!10, !10, i64 0}
!10 = !{!"double", !7, i64 0}
!11 = distinct !{!11, !12}
!12 = !{!"llvm.loop.mustprogress"}
!13 = distinct !{!13, !12}
!14 = distinct !{!14, !12}
